target datalayout = "e-m:e-p270:32:32-p271:32:32-p272:64:64-i64:64-i128:128-f80:128-n8:16:32:64-S128"
target triple = "x86_64-pc-linux-gnu"

%"class.casadi::Logger::Stream" = type { %"class.std::basic_ostream.base", %"class.casadi::Logger::Streambuf", %"class.std::basic_ios" }
%"class.std::basic_ostream.base" = type { ptr }
%"class.casadi::Logger::Streambuf" = type { %"class.std::basic_streambuf" }
%"class.std::basic_streambuf" = type { ptr, ptr, ptr, ptr, ptr, ptr, ptr, %"class.std::locale" }
%"class.std::locale" = type { ptr }
%"class.std::basic_ios" = type { %"class.std::ios_base", ptr, i8, i8, ptr, ptr, ptr, ptr }
%"class.std::ios_base" = type { ptr, i64, i64, i32, i32, i32, ptr, %"struct.std::ios_base::_Words", [8 x %"struct.std::ios_base::_Words"], i32, ptr, %"class.std::locale" }
%"struct.std::ios_base::_Words" = type { ptr, i64 }
%struct.__va_list_tag = type { i32, i32, ptr, ptr }

@__dso_handle = external hidden global i8
@_ZZN6casadi4uoutEvE8instance = internal global %"class.casadi::Logger::Stream" zeroinitializer, align 8
@_ZGVZN6casadi4uoutEvE8instance = internal global i64 0, align 8

; Function Attrs: mustprogress uwtable
define noundef nonnull align 8 dereferenceable(8) ptr @_ZN6casadi4uoutEv() #4 personality ptr @__gxx_personality_v0 {
  %1 = alloca ptr, align 8
  %2 = alloca i32, align 4
  %3 = load atomic i8, ptr @_ZGVZN6casadi4uoutEvE8instance acquire, align 8
  %4 = icmp eq i8 %3, 0
  br i1 %4, label %5, label %11, !prof !4

5:                                                ; preds = %0
  %6 = call i32 @__cxa_guard_acquire(ptr @_ZGVZN6casadi4uoutEvE8instance) #3
  %7 = icmp ne i32 %6, 0
  br i1 %7, label %8, label %11

8:                                                ; preds = %5
  invoke void @_ZN6casadi6Logger6StreamILb0EEC1Ev(ptr noundef nonnull align 8 dereferenceable(72) @_ZZN6casadi4uoutEvE8instance)
          to label %9 unwind label %12

9:                                                ; preds = %8
  %10 = call i32 @__cxa_atexit(ptr @_ZN6casadi6Logger6StreamILb0EED1Ev, ptr @_ZZN6casadi4uoutEvE8instance, ptr @__dso_handle) #3
  call void @__cxa_guard_release(ptr @_ZGVZN6casadi4uoutEvE8instance) #3
  br label %11

11:                                               ; preds = %9, %5, %0
  ret ptr @_ZZN6casadi4uoutEvE8instance

12:                                               ; preds = %8
  %13 = landingpad { ptr, i32 }
          cleanup
  %14 = extractvalue { ptr, i32 } %13, 0
  store ptr %14, ptr %1, align 8
  %15 = extractvalue { ptr, i32 } %13, 1
  store i32 %15, ptr %2, align 4
  call void @__cxa_guard_abort(ptr @_ZGVZN6casadi4uoutEvE8instance) #3
  br label %16

16:                                               ; preds = %12
  %17 = load ptr, ptr %1, align 8
  %18 = load i32, ptr %2, align 4
  %19 = insertvalue { ptr, i32 } poison, ptr %17, 0
  %20 = insertvalue { ptr, i32 } %19, i32 %18, 1
  resume { ptr, i32 } %20
}

; Function Attrs: mustprogress uwtable
define i32 @casadi_printf(ptr noundef %0, ...) #4 {
  %2 = alloca ptr, align 8
  %3 = alloca [1 x %struct.__va_list_tag], align 16
  %4 = alloca [256 x i8], align 16
  %5 = alloca i64, align 8
  %6 = alloca ptr, align 8
  %7 = alloca i64, align 8
  store ptr %0, ptr %2, align 8
  %8 = getelementptr inbounds [1 x %struct.__va_list_tag], ptr %3, i64 0, i64 0
  call void @llvm.va_start(ptr %8)
  store i64 256, ptr %5, align 8
  store ptr null, ptr %6, align 8
  %9 = getelementptr inbounds [256 x i8], ptr %4, i64 0, i64 0
  %10 = load i64, ptr %5, align 8
  %11 = load ptr, ptr %2, align 8
  %12 = getelementptr inbounds [1 x %struct.__va_list_tag], ptr %3, i64 0, i64 0
  %13 = call i32 @vsnprintf(ptr noundef %9, i64 noundef %10, ptr noundef %11, ptr noundef %12) #3
  %14 = sext i32 %13 to i64
  store i64 %14, ptr %7, align 8
  %15 = load i64, ptr %7, align 8
  %16 = load i64, ptr %5, align 8
  %17 = icmp sgt i64 %15, %16
  br i1 %17, label %18, label %29

18:                                               ; preds = %1
  %19 = load i64, ptr %7, align 8
  %20 = add nsw i64 %19, 1
  store i64 %20, ptr %5, align 8
  %21 = load i64, ptr %5, align 8
  %22 = call noalias noundef nonnull ptr @_Znam(i64 noundef %21) #10
  store ptr %22, ptr %6, align 8
  %23 = load ptr, ptr %6, align 8
  %24 = load i64, ptr %5, align 8
  %25 = load ptr, ptr %2, align 8
  %26 = getelementptr inbounds [1 x %struct.__va_list_tag], ptr %3, i64 0, i64 0
  %27 = call i32 @vsnprintf(ptr noundef %23, i64 noundef %24, ptr noundef %25, ptr noundef %26) #3
  %28 = sext i32 %27 to i64
  store i64 %28, ptr %7, align 8
  br label %29

29:                                               ; preds = %18, %1
  %30 = load i64, ptr %7, align 8
  %31 = icmp sge i64 %30, 0
  br i1 %31, label %32, label %44

32:                                               ; preds = %29
  %33 = call noundef nonnull align 8 dereferenceable(8) ptr @_ZN6casadi4uoutEv()
  %34 = load ptr, ptr %6, align 8
  %35 = icmp ne ptr %34, null
  br i1 %35, label %36, label %38

36:                                               ; preds = %32
  %37 = load ptr, ptr %6, align 8
  br label %40

38:                                               ; preds = %32
  %39 = getelementptr inbounds [256 x i8], ptr %4, i64 0, i64 0
  br label %40

40:                                               ; preds = %38, %36
  %41 = phi ptr [ %37, %36 ], [ %39, %38 ]
  %42 = call noundef nonnull align 8 dereferenceable(8) ptr @_ZStlsISt11char_traitsIcEERSt13basic_ostreamIcT_ES5_PKc(ptr noundef nonnull align 8 dereferenceable(8) %33, ptr noundef %41)
  %43 = call noundef nonnull align 8 dereferenceable(8) ptr @_ZNSolsEPFRSoS_E(ptr noundef nonnull align 8 dereferenceable(8) %42, ptr noundef @_ZSt5flushIcSt11char_traitsIcEERSt13basic_ostreamIT_T0_ES6_)
  br label %44

44:                                               ; preds = %40, %29
  %45 = load ptr, ptr %6, align 8
  %46 = icmp eq ptr %45, null
  br i1 %46, label %48, label %47

47:                                               ; preds = %44
  call void @_ZdaPv(ptr noundef %45) #11
  br label %48

48:                                               ; preds = %47, %44
  %49 = getelementptr inbounds [1 x %struct.__va_list_tag], ptr %3, i64 0, i64 0
  call void @llvm.va_end(ptr %49)
  %50 = load i64, ptr %7, align 8
  %51 = trunc i64 %50 to i32
  ret i32 %51
}