; Function Attrs: mustprogress uwtable
define noundef i32 @casadi_printf(ptr nocapture noundef readonly %0, ...) local_unnamed_addr #3 personality ptr @__gxx_personality_v0 {
  %2 = alloca [1 x %struct.__va_list_tag], align 16
  %3 = alloca [256 x i8], align 16
  call void @llvm.va_start(ptr nonnull %2)
  %4 = call i32 @vsnprintf(ptr noundef nonnull %3, i64 noundef 256, ptr noundef %0, ptr noundef nonnull %2) #12
  %5 = sext i32 %4 to i64
  %6 = icmp sgt i32 %4, 256
  br i1 %6, label %7, label %12

7:                                                ; preds = %1
  %8 = add nuw nsw i64 %5, 1
  %9 = call noalias noundef nonnull ptr @_Znam(i64 noundef %8) #13
  %10 = call i32 @vsnprintf(ptr noundef nonnull %9, i64 noundef %8, ptr noundef %0, ptr noundef nonnull %2) #12
  %11 = sext i32 %10 to i64
  br label %12

12:                                               ; preds = %7, %1
  %.013 = phi ptr [ %9, %7 ], [ null, %1 ]
  %.0 = phi i64 [ %11, %7 ], [ %5, %1 ]
  %13 = icmp sgt i64 %.0, -1
  br i1 %13, label %14, label %27

14:                                               ; preds = %12
  %15 = load atomic i8, ptr @_ZGVZN6casadi4uoutEvE8instance acquire, align 8
  %16 = icmp eq i8 %15, 0
  br i1 %16, label %17, label %_ZN6casadi4uoutEv.exit, !prof !4

17:                                               ; preds = %14
  %18 = call i32 @__cxa_guard_acquire(ptr nonnull @_ZGVZN6casadi4uoutEvE8instance) #12
  %.not.i = icmp eq i32 %18, 0
  br i1 %.not.i, label %_ZN6casadi4uoutEv.exit, label %19

19:                                               ; preds = %17
  invoke void @_ZN6casadi6Logger6StreamILb0EEC1Ev(ptr noundef nonnull align 8 dereferenceable(72) @_ZZN6casadi4uoutEvE8instance)
          to label %20 unwind label %22

20:                                               ; preds = %19
  %21 = call i32 @__cxa_atexit(ptr nonnull @_ZN6casadi6Logger6StreamILb0EED1Ev, ptr nonnull @_ZZN6casadi4uoutEvE8instance, ptr nonnull @__dso_handle) #12
  call void @__cxa_guard_release(ptr nonnull @_ZGVZN6casadi4uoutEvE8instance) #12
  br label %_ZN6casadi4uoutEv.exit

22:                                               ; preds = %19
  %23 = landingpad { ptr, i32 }
          cleanup
  call void @__cxa_guard_abort(ptr nonnull @_ZGVZN6casadi4uoutEvE8instance) #12
  resume { ptr, i32 } %23

_ZN6casadi4uoutEv.exit:                           ; preds = %14, %17, %20
  %.not = icmp eq ptr %.013, null
  %24 = select i1 %.not, ptr %3, ptr %.013
  %25 = call noundef nonnull align 8 dereferenceable(8) ptr @_ZStlsISt11char_traitsIcEERSt13basic_ostreamIcT_ES5_PKc(ptr noundef nonnull align 8 dereferenceable(8) @_ZZN6casadi4uoutEvE8instance, ptr noundef nonnull %24)
  %26 = call noundef nonnull align 8 dereferenceable(8) ptr @_ZNSolsEPFRSoS_E(ptr noundef nonnull align 8 dereferenceable(8) %25, ptr noundef nonnull @_ZSt5flushIcSt11char_traitsIcEERSt13basic_ostreamIT_T0_ES6_)
  br label %27

27:                                               ; preds = %_ZN6casadi4uoutEv.exit, %12
  %28 = icmp eq ptr %.013, null
  br i1 %28, label %30, label %29

29:                                               ; preds = %27
  call void @_ZdaPv(ptr noundef nonnull %.013) #14
  br label %30

30:                                               ; preds = %29, %27
  call void @llvm.va_end(ptr nonnull %2)
  %31 = trunc i64 %.0 to i32
  ret i32 %31
}